target datalayout = "e-m:e-p270:32:32-p271:32:32-p272:64:64-i64:64-i128:128-f80:128-n8:16:32:64-S128"
target triple = "x86_64-pc-linux-gnu"

%struct.DdManager = type { %struct.DdNode, ptr, ptr, ptr, ptr, ptr, ptr, ptr, i32, i32, double, double, double, i32, i32, i32, i32, i32, i32, ptr, ptr, %struct.DdSubtable, i32, i32, i32, i32, i32, i32, i32, double, i32, i32, i32, ptr, i64, double, i32, ptr, ptr, ptr, ptr, ptr, ptr, ptr, i32, ptr, ptr, ptr, ptr, ptr, ptr, i32, i32, i32, double, i32, i32, i32, i32, double, double, i32, i32, i32, i32, i32, i32, i32, i32, i32, ptr, ptr, i32, i32, i32, i32, i32, i32, ptr, ptr, ptr, ptr, ptr, ptr, ptr, ptr, i32, i64, i64, i64, i32, i64, i64, double, double, double, double, double, double, i32, ptr, ptr, i64 }
%struct.DdNode = type { i32, i32, ptr, %union.anon, i64 }
%union.anon = type { %struct.DdChildren }
%struct.DdChildren = type { ptr, ptr }
%struct.DdSubtable = type { ptr, i32, i32, i32, i32, i32, i32, i32, i32, i32, i32, i32 }
%struct.DdHashTable = type { i32, i32, ptr, ptr, ptr, i32, i32, i32, i32, ptr }

@background = internal global ptr null, align 8
@zero = internal global ptr null, align 8

; Function Attrs: nounwind uwtable
define internal double @ddCountMintermAux(ptr noundef %0, double noundef %1, ptr noundef %2) #0 {
  %4 = alloca double, align 8
  %5 = alloca ptr, align 8
  %6 = alloca double, align 8
  %7 = alloca ptr, align 8
  %8 = alloca ptr, align 8
  %9 = alloca ptr, align 8
  %10 = alloca ptr, align 8
  %11 = alloca double, align 8
  %12 = alloca double, align 8
  %13 = alloca double, align 8
  %14 = alloca ptr, align 8
  %15 = alloca i64, align 8
  store ptr %0, ptr %5, align 8
  store double %1, ptr %6, align 8
  store ptr %2, ptr %7, align 8
  %16 = load ptr, ptr %5, align 8
  %17 = ptrtoint ptr %16 to i64
  %18 = and i64 %17, -2
  %19 = inttoptr i64 %18 to ptr
  store ptr %19, ptr %8, align 8
  %20 = load ptr, ptr %8, align 8
  %21 = getelementptr inbounds %struct.DdNode, ptr %20, i32 0, i32 0
  %22 = load i32, ptr %21, align 8
  %23 = icmp eq i32 %22, 2147483647
  br i1 %23, label %24, label %35

24:                                               ; preds = %3
  %25 = load ptr, ptr %5, align 8
  %26 = load ptr, ptr @background, align 8
  %27 = icmp eq ptr %25, %26
  br i1 %27, label %32, label %28

28:                                               ; preds = %24
  %29 = load ptr, ptr %5, align 8
  %30 = load ptr, ptr @zero, align 8
  %31 = icmp eq ptr %29, %30
  br i1 %31, label %32, label %33

32:                                               ; preds = %28, %24
  store double 0.000000e+00, ptr %4, align 8
  br label %153

33:                                               ; preds = %28
  %34 = load double, ptr %6, align 8
  store double %34, ptr %4, align 8
  br label %153

35:                                               ; preds = %3
  %36 = load ptr, ptr %8, align 8
  %37 = getelementptr inbounds %struct.DdNode, ptr %36, i32 0, i32 1
  %38 = load i32, ptr %37, align 4
  %39 = icmp ne i32 %38, 1
  br i1 %39, label %40, label %69

40:                                               ; preds = %35
  %41 = load ptr, ptr %7, align 8
  %42 = load ptr, ptr %5, align 8
  %43 = call ptr @cuddHashTableLookup1(ptr noundef %41, ptr noundef %42)
  store ptr %43, ptr %14, align 8
  %44 = icmp ne ptr %43, null
  br i1 %44, label %45, label %69

45:                                               ; preds = %40
  %46 = load ptr, ptr %14, align 8
  %47 = getelementptr inbounds %struct.DdNode, ptr %46, i32 0, i32 3
  %48 = load double, ptr %47, align 8
  store double %48, ptr %11, align 8
  %49 = load ptr, ptr %14, align 8
  %50 = getelementptr inbounds %struct.DdNode, ptr %49, i32 0, i32 1
  %51 = load i32, ptr %50, align 4
  %52 = icmp eq i32 %51, 0
  br i1 %52, label %53, label %67

53:                                               ; preds = %45
  %54 = load ptr, ptr %7, align 8
  %55 = getelementptr inbounds %struct.DdHashTable, ptr %54, i32 0, i32 9
  %56 = load ptr, ptr %55, align 8
  %57 = getelementptr inbounds %struct.DdManager, ptr %56, i32 0, i32 25
  %58 = load i32, ptr %57, align 4
  %59 = add i32 %58, 1
  store i32 %59, ptr %57, align 4
  %60 = load ptr, ptr %7, align 8
  %61 = getelementptr inbounds %struct.DdHashTable, ptr %60, i32 0, i32 9
  %62 = load ptr, ptr %61, align 8
  %63 = getelementptr inbounds %struct.DdManager, ptr %62, i32 0, i32 21
  %64 = getelementptr inbounds %struct.DdSubtable, ptr %63, i32 0, i32 5
  %65 = load i32, ptr %64, align 8
  %66 = add i32 %65, 1
  store i32 %66, ptr %64, align 8
  br label %67

67:                                               ; preds = %53, %45
  %68 = load double, ptr %11, align 8
  store double %68, ptr %4, align 8
  br label %153

69:                                               ; preds = %40, %35
  %70 = load ptr, ptr %8, align 8
  %71 = getelementptr inbounds %struct.DdNode, ptr %70, i32 0, i32 3
  %72 = getelementptr inbounds %struct.DdChildren, ptr %71, i32 0, i32 0
  %73 = load ptr, ptr %72, align 8
  store ptr %73, ptr %9, align 8
  %74 = load ptr, ptr %8, align 8
  %75 = getelementptr inbounds %struct.DdNode, ptr %74, i32 0, i32 3
  %76 = getelementptr inbounds %struct.DdChildren, ptr %75, i32 0, i32 1
  %77 = load ptr, ptr %76, align 8
  store ptr %77, ptr %10, align 8
  %78 = load ptr, ptr %5, align 8
  %79 = ptrtoint ptr %78 to i64
  %80 = and i64 %79, 1
  %81 = trunc i64 %80 to i32
  %82 = icmp ne i32 %81, 0
  br i1 %82, label %83, label %92

83:                                               ; preds = %69
  %84 = load ptr, ptr %9, align 8
  %85 = ptrtoint ptr %84 to i64
  %86 = xor i64 %85, 1
  %87 = inttoptr i64 %86 to ptr
  store ptr %87, ptr %9, align 8
  %88 = load ptr, ptr %10, align 8
  %89 = ptrtoint ptr %88 to i64
  %90 = xor i64 %89, 1
  %91 = inttoptr i64 %90 to ptr
  store ptr %91, ptr %10, align 8
  br label %92

92:                                               ; preds = %83, %69
  %93 = load ptr, ptr %9, align 8
  %94 = load double, ptr %6, align 8
  %95 = load ptr, ptr %7, align 8
  %96 = call double @ddCountMintermAux(ptr noundef %93, double noundef %94, ptr noundef %95)
  store double %96, ptr %12, align 8
  %97 = load double, ptr %12, align 8
  %98 = fcmp oeq double %97, -1.000000e+00
  br i1 %98, label %99, label %100

99:                                               ; preds = %92
  store double -1.000000e+00, ptr %4, align 8
  br label %153

100:                                              ; preds = %92
  %101 = load double, ptr %12, align 8
  %102 = fmul double %101, 5.000000e-01
  store double %102, ptr %12, align 8
  %103 = load ptr, ptr %10, align 8
  %104 = load double, ptr %6, align 8
  %105 = load ptr, ptr %7, align 8
  %106 = call double @ddCountMintermAux(ptr noundef %103, double noundef %104, ptr noundef %105)
  store double %106, ptr %13, align 8
  %107 = load double, ptr %13, align 8
  %108 = fcmp oeq double %107, -1.000000e+00
  br i1 %108, label %109, label %110

109:                                              ; preds = %100
  store double -1.000000e+00, ptr %4, align 8
  br label %153

110:                                              ; preds = %100
  %111 = load double, ptr %13, align 8
  %112 = fmul double %111, 5.000000e-01
  store double %112, ptr %13, align 8
  %113 = load double, ptr %12, align 8
  %114 = load double, ptr %13, align 8
  %115 = fadd double %113, %114
  store double %115, ptr %11, align 8
  %116 = load ptr, ptr %8, align 8
  %117 = getelementptr inbounds %struct.DdNode, ptr %116, i32 0, i32 1
  %118 = load i32, ptr %117, align 4
  %119 = icmp ne i32 %118, 1
  br i1 %119, label %120, label %151

120:                                              ; preds = %110
  %121 = load ptr, ptr %8, align 8
  %122 = getelementptr inbounds %struct.DdNode, ptr %121, i32 0, i32 1
  %123 = load i32, ptr %122, align 4
  %124 = zext i32 %123 to i64
  store i64 %124, ptr %15, align 8
  %125 = load i64, ptr %15, align 8
  %126 = add nsw i64 %125, -1
  store i64 %126, ptr %15, align 8
  %127 = load ptr, ptr %7, align 8
  %128 = getelementptr inbounds %struct.DdHashTable, ptr %127, i32 0, i32 9
  %129 = load ptr, ptr %128, align 8
  %130 = load double, ptr %11, align 8
  %131 = call ptr @cuddUniqueConst(ptr noundef %129, double noundef %130)
  store ptr %131, ptr %14, align 8
  %132 = load ptr, ptr %7, align 8
  %133 = load ptr, ptr %5, align 8
  %134 = load ptr, ptr %14, align 8
  %135 = load i64, ptr %15, align 8
  %136 = call i32 @cuddHashTableInsert1(ptr noundef %132, ptr noundef %133, ptr noundef %134, i64 noundef %135)
  %137 = icmp ne i32 %136, 0
  br i1 %137, label %150, label %138

138:                                              ; preds = %120
  %139 = load ptr, ptr %14, align 8
  %140 = ptrtoint ptr %139 to i64
  %141 = and i64 %140, -2
  %142 = inttoptr i64 %141 to ptr
  %143 = getelementptr inbounds %struct.DdNode, ptr %142, i32 0, i32 1
  %144 = load i32, ptr %143, align 4
  %145 = add i32 %144, 1
  store i32 %145, ptr %143, align 4
  %146 = load ptr, ptr %7, align 8
  %147 = getelementptr inbounds %struct.DdHashTable, ptr %146, i32 0, i32 9
  %148 = load ptr, ptr %147, align 8
  %149 = load ptr, ptr %14, align 8
  call void @Cudd_RecursiveDeref(ptr noundef %148, ptr noundef %149)
  store double -1.000000e+00, ptr %4, align 8
  br label %153

150:                                              ; preds = %120
  br label %151

151:                                              ; preds = %150, %110
  %152 = load double, ptr %11, align 8
  store double %152, ptr %4, align 8
  br label %153

153:                                              ; preds = %151, %138, %109, %99, %67, %33, %32
  %154 = load double, ptr %4, align 8
  ret double %154
}