; Function Attrs: nounwind uwtable
define internal fastcc double @ddCountMintermAux(ptr noundef %0, double noundef %1, ptr noundef nonnull %2) unnamed_addr #0 {
  %4 = ptrtoint ptr %0 to i64
  %5 = and i64 %4, -2
  %6 = inttoptr i64 %5 to ptr
  %7 = load i32, ptr %6, align 8
  %8 = icmp eq i32 %7, 2147483647
  br i1 %8, label %9, label %15

9:                                                ; preds = %3
  %10 = load ptr, ptr @background, align 8
  %11 = icmp eq ptr %0, %10
  %12 = load ptr, ptr @zero, align 8
  %13 = icmp eq ptr %0, %12
  %or.cond = select i1 %11, i1 true, i1 %13
  br i1 %or.cond, label %73, label %14

14:                                               ; preds = %9
  br label %73

15:                                               ; preds = %3
  %16 = getelementptr inbounds nuw i8, ptr %6, i64 4
  %17 = load i32, ptr %16, align 4
  %.not = icmp eq i32 %17, 1
  br i1 %.not, label %36, label %18

18:                                               ; preds = %15
  %19 = tail call ptr @cuddHashTableLookup1(ptr noundef nonnull %2, ptr noundef %0) #23
  %.not50 = icmp eq ptr %19, null
  br i1 %.not50, label %36, label %20

20:                                               ; preds = %18
  %21 = getelementptr inbounds nuw i8, ptr %19, i64 16
  %22 = load double, ptr %21, align 8
  %23 = getelementptr inbounds nuw i8, ptr %19, i64 4
  %24 = load i32, ptr %23, align 4
  %25 = icmp eq i32 %24, 0
  br i1 %25, label %26, label %73

26:                                               ; preds = %20
  %27 = getelementptr inbounds nuw i8, ptr %2, i64 48
  %28 = load ptr, ptr %27, align 8
  %29 = getelementptr inbounds nuw i8, ptr %28, i64 236
  %30 = load i32, ptr %29, align 4
  %31 = add i32 %30, 1
  store i32 %31, ptr %29, align 4
  %32 = load ptr, ptr %27, align 8
  %33 = getelementptr inbounds nuw i8, ptr %32, i64 192
  %34 = load i32, ptr %33, align 8
  %35 = add i32 %34, 1
  store i32 %35, ptr %33, align 8
  br label %73

36:                                               ; preds = %18, %15
  %37 = getelementptr inbounds nuw i8, ptr %6, i64 16
  %38 = load ptr, ptr %37, align 8
  %39 = getelementptr inbounds nuw i8, ptr %6, i64 24
  %40 = load ptr, ptr %39, align 8
  %41 = and i64 %4, 1
  %.not51 = icmp eq i64 %41, 0
  %42 = ptrtoint ptr %38 to i64
  %43 = xor i64 %42, 1
  %44 = inttoptr i64 %43 to ptr
  %.044 = select i1 %.not51, ptr %38, ptr %44
  %45 = tail call fastcc double @ddCountMintermAux(ptr noundef %.044, double noundef %1, ptr noundef %2)
  %46 = fcmp oeq double %45, -1.000000e+00
  br i1 %46, label %73, label %47

47:                                               ; preds = %36
  %48 = ptrtoint ptr %40 to i64
  %49 = xor i64 %48, 1
  %50 = inttoptr i64 %49 to ptr
  %.043 = select i1 %.not51, ptr %40, ptr %50
  %51 = tail call fastcc double @ddCountMintermAux(ptr noundef %.043, double noundef %1, ptr noundef %2)
  %52 = fcmp oeq double %51, -1.000000e+00
  br i1 %52, label %73, label %53

53:                                               ; preds = %47
  %54 = fmul double %45, 5.000000e-01
  %55 = fmul double %51, 5.000000e-01
  %56 = fadd double %54, %55
  %57 = load i32, ptr %16, align 4
  %.not52 = icmp eq i32 %57, 1
  br i1 %.not52, label %73, label %58

58:                                               ; preds = %53
  %59 = zext i32 %57 to i64
  %60 = add nsw i64 %59, -1
  %61 = getelementptr inbounds nuw i8, ptr %2, i64 48
  %62 = load ptr, ptr %61, align 8
  %63 = tail call ptr @cuddUniqueConst(ptr noundef %62, double noundef %56) #23
  %64 = tail call i32 @cuddHashTableInsert1(ptr noundef nonnull %2, ptr noundef %0, ptr noundef %63, i64 noundef %60) #23
  %.not53 = icmp eq i32 %64, 0
  br i1 %.not53, label %65, label %73

65:                                               ; preds = %58
  %66 = ptrtoint ptr %63 to i64
  %67 = and i64 %66, -2
  %68 = inttoptr i64 %67 to ptr
  %69 = getelementptr inbounds nuw i8, ptr %68, i64 4
  %70 = load i32, ptr %69, align 4
  %71 = add i32 %70, 1
  store i32 %71, ptr %69, align 4
  %72 = load ptr, ptr %61, align 8
  tail call void @Cudd_RecursiveDeref(ptr noundef %72, ptr noundef %63) #23
  br label %73

73:                                               ; preds = %53, %58, %47, %36, %20, %26, %9, %65, %14
  %.0 = phi double [ %1, %14 ], [ -1.000000e+00, %65 ], [ 0.000000e+00, %9 ], [ %22, %26 ], [ %22, %20 ], [ -1.000000e+00, %36 ], [ -1.000000e+00, %47 ], [ %56, %58 ], [ %56, %53 ]
  ret double %.0
}